target datalayout = "e-m:e-p270:32:32-p271:32:32-p272:64:64-i64:64-i128:128-f80:128-n8:16:32:64-S128"
target triple = "x86_64-unknown-linux-gnu"

%struct.AioContext = type { %struct._GSource, %struct.QemuRecMutex, ptr, %struct.AioHandlerList, %struct.AioHandlerList, i32, %struct.QemuLockCnt, %struct.BHList, %struct.anon, i8, %struct.EventNotifier, %struct.anon.0, ptr, i32, i32, ptr, ptr, %struct.io_uring, %struct.AioHandlerSList, %struct.QEMUTimerListGroup, i32, i64, i64, i64, i64, i64, %struct.AioHandlerList, i8, i32, ptr }
%struct._GSource = type { ptr, ptr, ptr, i32, ptr, i32, i32, i32, ptr, ptr, ptr, ptr, ptr }
%struct.QemuRecMutex = type { %struct.QemuMutex }
%struct.QemuMutex = type { %union.pthread_mutex_t, i8 }
%union.pthread_mutex_t = type { %struct.__pthread_mutex_s }
%struct.__pthread_mutex_s = type { i32, i32, i32, i32, i32, i16, i16, %struct.__pthread_internal_list }
%struct.__pthread_internal_list = type { ptr, ptr }
%struct.QemuLockCnt = type { i32 }
%struct.BHList = type { ptr }
%struct.anon = type { ptr, ptr }
%struct.EventNotifier = type { i32, i32, i8 }
%struct.anon.0 = type { ptr }
%struct.io_uring = type { %struct.io_uring_sq, %struct.io_uring_cq, i32, i32, i32, [3 x i32] }
%struct.io_uring_sq = type { ptr, ptr, ptr, ptr, ptr, ptr, ptr, ptr, i32, i32, i64, ptr, [4 x i32] }
%struct.io_uring_cq = type { ptr, ptr, ptr, ptr, ptr, ptr, ptr, i64, ptr, [4 x i32] }
%struct.AioHandlerSList = type { ptr }
%struct.QEMUTimerListGroup = type { [4 x ptr] }
%struct.AioHandlerList = type { ptr }
%struct.AioHandler = type { %struct._GPollFD, ptr, ptr, ptr, ptr, ptr, ptr, ptr, %struct.anon.1, %struct.anon.2, %struct.anon.3, %struct.anon.4, %struct.anon.5, i32, i64, i8 }
%struct._GPollFD = type { i32, i16, i16 }
%struct.anon.1 = type { ptr, ptr }
%struct.anon.2 = type { ptr, ptr }
%struct.anon.3 = type { ptr, ptr }
%struct.anon.4 = type { ptr, ptr }
%struct.anon.5 = type { ptr }
%struct.io_uring_sqe = type { i8, i8, i16, i32, %union.anon, %union.anon.6, i32, %union.anon.7, i64, %union.anon.8, i16, %union.anon.9, [2 x i64] }
%union.anon = type { i64 }
%union.anon.6 = type { i64 }
%union.anon.7 = type { i32 }
%union.anon.8 = type { i16 }
%union.anon.9 = type { i32 }

@.str = private unnamed_addr constant [30 x i8] c"../qemu/util/fdmon-io_uring.c\00", align 1
@.str.3 = private unnamed_addr constant [8 x i8] c"ret > 1\00", align 1
@__PRETTY_FUNCTION__.get_sqe = private unnamed_addr constant [43 x i8] c"struct io_uring_sqe *get_sqe(AioContext *)\00", align 1
@.str.4 = private unnamed_addr constant [4 x i8] c"sqe\00", align 1

; Function Attrs: nounwind sspstrong uwtable
define internal i32 @__io_uring_prep_poll_mask(i32 noundef %poll_mask) #0 {
entry:
  %poll_mask.addr = alloca i32, align 4
  store i32 %poll_mask, ptr %poll_mask.addr, align 4
  %0 = load i32, ptr %poll_mask.addr, align 4
  ret i32 %0
}

; Function Attrs: nounwind sspstrong uwtable
define internal void @io_uring_prep_rw(i32 noundef %op, ptr noundef %sqe, i32 noundef %fd, ptr noundef %addr, i32 noundef %len, i64 noundef %offset) #0 {
entry:
  %op.addr = alloca i32, align 4
  %sqe.addr = alloca ptr, align 8
  %fd.addr = alloca i32, align 4
  %addr.addr = alloca ptr, align 8
  %len.addr = alloca i32, align 4
  %offset.addr = alloca i64, align 8
  store i32 %op, ptr %op.addr, align 4
  store ptr %sqe, ptr %sqe.addr, align 8
  store i32 %fd, ptr %fd.addr, align 4
  store ptr %addr, ptr %addr.addr, align 8
  store i32 %len, ptr %len.addr, align 4
  store i64 %offset, ptr %offset.addr, align 8
  %0 = load i32, ptr %op.addr, align 4
  %conv = trunc i32 %0 to i8
  %1 = load ptr, ptr %sqe.addr, align 8
  %opcode = getelementptr inbounds %struct.io_uring_sqe, ptr %1, i32 0, i32 0
  store i8 %conv, ptr %opcode, align 8
  %2 = load ptr, ptr %sqe.addr, align 8
  %flags = getelementptr inbounds %struct.io_uring_sqe, ptr %2, i32 0, i32 1
  store i8 0, ptr %flags, align 1
  %3 = load ptr, ptr %sqe.addr, align 8
  %ioprio = getelementptr inbounds %struct.io_uring_sqe, ptr %3, i32 0, i32 2
  store i16 0, ptr %ioprio, align 2
  %4 = load i32, ptr %fd.addr, align 4
  %5 = load ptr, ptr %sqe.addr, align 8
  %fd1 = getelementptr inbounds %struct.io_uring_sqe, ptr %5, i32 0, i32 3
  store i32 %4, ptr %fd1, align 4
  %6 = load i64, ptr %offset.addr, align 8
  %7 = load ptr, ptr %sqe.addr, align 8
  %8 = getelementptr inbounds %struct.io_uring_sqe, ptr %7, i32 0, i32 4
  store i64 %6, ptr %8, align 8
  %9 = load ptr, ptr %addr.addr, align 8
  %10 = ptrtoint ptr %9 to i64
  %11 = load ptr, ptr %sqe.addr, align 8
  %12 = getelementptr inbounds %struct.io_uring_sqe, ptr %11, i32 0, i32 5
  store i64 %10, ptr %12, align 8
  %13 = load i32, ptr %len.addr, align 4
  %14 = load ptr, ptr %sqe.addr, align 8
  %len2 = getelementptr inbounds %struct.io_uring_sqe, ptr %14, i32 0, i32 6
  store i32 %13, ptr %len2, align 8
  %15 = load ptr, ptr %sqe.addr, align 8
  %16 = getelementptr inbounds %struct.io_uring_sqe, ptr %15, i32 0, i32 7
  store i32 0, ptr %16, align 4
  %17 = load ptr, ptr %sqe.addr, align 8
  %user_data = getelementptr inbounds %struct.io_uring_sqe, ptr %17, i32 0, i32 8
  store i64 0, ptr %user_data, align 8
  %18 = load ptr, ptr %sqe.addr, align 8
  %19 = getelementptr inbounds %struct.io_uring_sqe, ptr %18, i32 0, i32 9
  store i16 0, ptr %19, align 8
  %20 = load ptr, ptr %sqe.addr, align 8
  %personality = getelementptr inbounds %struct.io_uring_sqe, ptr %20, i32 0, i32 10
  store i16 0, ptr %personality, align 2
  %21 = load ptr, ptr %sqe.addr, align 8
  %22 = getelementptr inbounds %struct.io_uring_sqe, ptr %21, i32 0, i32 11
  store i32 0, ptr %22, align 4
  %23 = load ptr, ptr %sqe.addr, align 8
  %__pad2 = getelementptr inbounds %struct.io_uring_sqe, ptr %23, i32 0, i32 12
  %arrayidx = getelementptr [2 x i64], ptr %__pad2, i64 0, i64 1
  store i64 0, ptr %arrayidx, align 8
  %24 = load ptr, ptr %sqe.addr, align 8
  %__pad23 = getelementptr inbounds %struct.io_uring_sqe, ptr %24, i32 0, i32 12
  %arrayidx4 = getelementptr [2 x i64], ptr %__pad23, i64 0, i64 0
  store i64 0, ptr %arrayidx4, align 8
  ret void
}

; Function Attrs: nounwind sspstrong uwtable
define internal void @io_uring_sqe_set_data(ptr noundef %sqe, ptr noundef %data) #0 {
entry:
  %sqe.addr = alloca ptr, align 8
  %data.addr = alloca ptr, align 8
  store ptr %sqe, ptr %sqe.addr, align 8
  store ptr %data, ptr %data.addr, align 8
  %0 = load ptr, ptr %data.addr, align 8
  %1 = ptrtoint ptr %0 to i64
  %2 = load ptr, ptr %sqe.addr, align 8
  %user_data = getelementptr inbounds %struct.io_uring_sqe, ptr %2, i32 0, i32 8
  store i64 %1, ptr %user_data, align 8
  ret void
}

; Function Attrs: nounwind sspstrong uwtable
define internal void @io_uring_prep_poll_add(ptr noundef %sqe, i32 noundef %fd, i32 noundef %poll_mask) #0 {
entry:
  %sqe.addr = alloca ptr, align 8
  %fd.addr = alloca i32, align 4
  %poll_mask.addr = alloca i32, align 4
  store ptr %sqe, ptr %sqe.addr, align 8
  store i32 %fd, ptr %fd.addr, align 4
  store i32 %poll_mask, ptr %poll_mask.addr, align 4
  %0 = load ptr, ptr %sqe.addr, align 8
  %1 = load i32, ptr %fd.addr, align 4
  call void @io_uring_prep_rw(i32 noundef 6, ptr noundef %0, i32 noundef %1, ptr noundef null, i32 noundef 0, i64 noundef 0)
  %2 = load i32, ptr %poll_mask.addr, align 4
  %call = call i32 @__io_uring_prep_poll_mask(i32 noundef %2)
  %3 = load ptr, ptr %sqe.addr, align 8
  %4 = getelementptr inbounds %struct.io_uring_sqe, ptr %3, i32 0, i32 7
  store i32 %call, ptr %4, align 4
  ret void
}

; Function Attrs: nounwind sspstrong uwtable
define internal i32 @poll_events_from_pfd(i32 noundef %pfd_events) #0 {
entry:
  %pfd_events.addr = alloca i32, align 4
  store i32 %pfd_events, ptr %pfd_events.addr, align 4
  %0 = load i32, ptr %pfd_events.addr, align 4
  %and = and i32 %0, 1
  %tobool = icmp ne i32 %and, 0
  %cond = select i1 %tobool, i32 1, i32 0
  %1 = load i32, ptr %pfd_events.addr, align 4
  %and1 = and i32 %1, 4
  %tobool2 = icmp ne i32 %and1, 0
  %cond3 = select i1 %tobool2, i32 4, i32 0
  %or = or i32 %cond, %cond3
  %2 = load i32, ptr %pfd_events.addr, align 4
  %and4 = and i32 %2, 16
  %tobool5 = icmp ne i32 %and4, 0
  %cond6 = select i1 %tobool5, i32 16, i32 0
  %or7 = or i32 %or, %cond6
  %3 = load i32, ptr %pfd_events.addr, align 4
  %and8 = and i32 %3, 8
  %tobool9 = icmp ne i32 %and8, 0
  %cond10 = select i1 %tobool9, i32 8, i32 0
  %or11 = or i32 %or7, %cond10
  ret i32 %or11
}

; Function Attrs: nounwind sspstrong uwtable
define internal ptr @get_sqe(ptr noundef %ctx) #0 {
entry:
  %retval = alloca ptr, align 8
  %ctx.addr = alloca ptr, align 8
  %ring = alloca ptr, align 8
  %sqe = alloca ptr, align 8
  %ret = alloca i32, align 4
  store ptr %ctx, ptr %ctx.addr, align 8
  %0 = load ptr, ptr %ctx.addr, align 8
  %fdmon_io_uring = getelementptr inbounds %struct.AioContext, ptr %0, i32 0, i32 17
  store ptr %fdmon_io_uring, ptr %ring, align 8
  %1 = load ptr, ptr %ring, align 8
  %call = call ptr @io_uring_get_sqe(ptr noundef %1)
  store ptr %call, ptr %sqe, align 8
  %2 = load ptr, ptr %sqe, align 8
  %tobool = icmp ne ptr %2, null
  %lnot = xor i1 %tobool, true
  %lnot1 = xor i1 %lnot, true
  %lnot.ext = zext i1 %lnot1 to i32
  %conv = sext i32 %lnot.ext to i64
  %tobool2 = icmp ne i64 %conv, 0
  br i1 %tobool2, label %if.then, label %if.end

if.then:                                          ; preds = %entry
  %3 = load ptr, ptr %sqe, align 8
  store ptr %3, ptr %retval, align 8
  br label %return

if.end:                                           ; preds = %entry
  br label %do.body

do.body:                                          ; preds = %do.cond, %if.end
  %4 = load ptr, ptr %ring, align 8
  %call3 = call i32 @io_uring_submit(ptr noundef %4)
  store i32 %call3, ptr %ret, align 4
  br label %do.cond

do.cond:                                          ; preds = %do.body
  %5 = load i32, ptr %ret, align 4
  %cmp = icmp eq i32 %5, -4
  br i1 %cmp, label %do.body, label %do.end, !llvm.loop !12

do.end:                                           ; preds = %do.cond
  %6 = load i32, ptr %ret, align 4
  %cmp5 = icmp sgt i32 %6, 1
  br i1 %cmp5, label %if.then7, label %if.else

if.then7:                                         ; preds = %do.end
  br label %if.end8

if.else:                                          ; preds = %do.end
  call void @__assert_fail(ptr noundef @.str.3, ptr noundef @.str, i32 noundef 95, ptr noundef @__PRETTY_FUNCTION__.get_sqe) #6
  unreachable

if.end8:                                          ; preds = %if.then7
  %7 = load ptr, ptr %ring, align 8
  %call9 = call ptr @io_uring_get_sqe(ptr noundef %7)
  store ptr %call9, ptr %sqe, align 8
  %8 = load ptr, ptr %sqe, align 8
  %tobool10 = icmp ne ptr %8, null
  br i1 %tobool10, label %if.then11, label %if.else12

if.then11:                                        ; preds = %if.end8
  br label %if.end13

if.else12:                                        ; preds = %if.end8
  call void @__assert_fail(ptr noundef @.str.4, ptr noundef @.str, i32 noundef 97, ptr noundef @__PRETTY_FUNCTION__.get_sqe) #6
  unreachable

if.end13:                                         ; preds = %if.then11
  %9 = load ptr, ptr %sqe, align 8
  store ptr %9, ptr %retval, align 8
  br label %return

return:                                           ; preds = %if.end13, %if.then
  %10 = load ptr, ptr %retval, align 8
  ret ptr %10
}

; Function Attrs: nounwind sspstrong uwtable
define internal void @add_poll_add_sqe(ptr noundef %ctx, ptr noundef %node) #0 {
entry:
  %ctx.addr = alloca ptr, align 8
  %node.addr = alloca ptr, align 8
  %sqe = alloca ptr, align 8
  %events = alloca i32, align 4
  store ptr %ctx, ptr %ctx.addr, align 8
  store ptr %node, ptr %node.addr, align 8
  %0 = load ptr, ptr %ctx.addr, align 8
  %call = call ptr @get_sqe(ptr noundef %0)
  store ptr %call, ptr %sqe, align 8
  %1 = load ptr, ptr %node.addr, align 8
  %pfd = getelementptr inbounds %struct.AioHandler, ptr %1, i32 0, i32 0
  %events1 = getelementptr inbounds %struct._GPollFD, ptr %pfd, i32 0, i32 1
  %2 = load i16, ptr %events1, align 4
  %conv = zext i16 %2 to i32
  %call2 = call i32 @poll_events_from_pfd(i32 noundef %conv)
  store i32 %call2, ptr %events, align 4
  %3 = load ptr, ptr %sqe, align 8
  %4 = load ptr, ptr %node.addr, align 8
  %pfd3 = getelementptr inbounds %struct.AioHandler, ptr %4, i32 0, i32 0
  %fd = getelementptr inbounds %struct._GPollFD, ptr %pfd3, i32 0, i32 0
  %5 = load i32, ptr %fd, align 8
  %6 = load i32, ptr %events, align 4
  call void @io_uring_prep_poll_add(ptr noundef %3, i32 noundef %5, i32 noundef %6)
  %7 = load ptr, ptr %sqe, align 8
  %8 = load ptr, ptr %node.addr, align 8
  call void @io_uring_sqe_set_data(ptr noundef %7, ptr noundef %8)
  ret void
}