; Function Attrs: nounwind sspstrong uwtable
define internal fastcc void @add_poll_add_sqe(ptr noundef %ctx, ptr noundef nonnull %node) unnamed_addr #0 {
entry:
  %fdmon_io_uring.i = getelementptr inbounds nuw i8, ptr %ctx, i64 256
  %call.i = tail call ptr @io_uring_get_sqe(ptr noundef nonnull %fdmon_io_uring.i) #6
  %tobool.not.i = icmp eq ptr %call.i, null
  br i1 %tobool.not.i, label %do.body.i, label %get_sqe.exit

do.body.i:                                        ; preds = %entry, %do.body.i
  %call3.i = tail call i32 @io_uring_submit(ptr noundef nonnull %fdmon_io_uring.i) #6
  %cmp.i = icmp eq i32 %call3.i, -4
  br i1 %cmp.i, label %do.body.i, label %do.end.i, !llvm.loop !9

do.end.i:                                         ; preds = %do.body.i
  %cmp5.i = icmp sgt i32 %call3.i, 1
  br i1 %cmp5.i, label %if.end8.i, label %if.else.i

if.else.i:                                        ; preds = %do.end.i
  tail call void @__assert_fail(ptr noundef nonnull @.str.3, ptr noundef nonnull @.str, i32 noundef 95, ptr noundef nonnull @__PRETTY_FUNCTION__.get_sqe) #7
  unreachable

if.end8.i:                                        ; preds = %do.end.i
  %call9.i = tail call ptr @io_uring_get_sqe(ptr noundef nonnull %fdmon_io_uring.i) #6
  %tobool10.not.i = icmp eq ptr %call9.i, null
  br i1 %tobool10.not.i, label %if.else12.i, label %get_sqe.exit

if.else12.i:                                      ; preds = %if.end8.i
  tail call void @__assert_fail(ptr noundef nonnull @.str.4, ptr noundef nonnull @.str, i32 noundef 97, ptr noundef nonnull @__PRETTY_FUNCTION__.get_sqe) #7
  unreachable

get_sqe.exit:                                     ; preds = %entry, %if.end8.i
  %retval.0.i = phi ptr [ %call.i, %entry ], [ %call9.i, %if.end8.i ]
  %events1 = getelementptr inbounds nuw i8, ptr %node, i64 4
  %0 = load i16, ptr %events1, align 4
  %1 = and i16 %0, 29
  %or11.i = zext nneg i16 %1 to i32
  %2 = load i32, ptr %node, align 8
  store i8 6, ptr %retval.0.i, align 8
  %flags.i.i = getelementptr inbounds nuw i8, ptr %retval.0.i, i64 1
  store i8 0, ptr %flags.i.i, align 1
  %ioprio.i.i = getelementptr inbounds nuw i8, ptr %retval.0.i, i64 2
  store i16 0, ptr %ioprio.i.i, align 2
  %fd1.i.i = getelementptr inbounds nuw i8, ptr %retval.0.i, i64 4
  store i32 %2, ptr %fd1.i.i, align 4
  %3 = getelementptr inbounds nuw i8, ptr %retval.0.i, i64 8
  %4 = getelementptr inbounds nuw i8, ptr %retval.0.i, i64 28
  tail call void @llvm.memset.p0.i64(ptr noundef nonnull align 8 dereferenceable(56) %3, i8 0, i64 56, i1 false)
  store i32 %or11.i, ptr %4, align 4
  %5 = ptrtoint ptr %node to i64
  %user_data.i = getelementptr inbounds nuw i8, ptr %retval.0.i, i64 32
  store i64 %5, ptr %user_data.i, align 8
  ret void
}